     1 00000000                                 ;haribo-ipl
     2 00000000                                 ;TAB=4 
     3  = 0000000A                              CYLS	EQU		10
     4                                          		ORG		0x7c00			;以下程序装到7c00(ORG指明以下的机器语言程序装载到内存的地址)
     5 00007C00                                 
     6 00007C00 EB 4E                           		JMP 	entry
     7 00007C02 90                              		DB 		0x90
     8 00007C03                                 		
     9 00007C03 48 45 4C 4C 4F 49 50 4C         		DB		"HELLOIPL"		; ブートセクタの名前を自由に書いてよい（8バイト）
    10 00007C0B 0200                            		DW		512				; 1セクタの大きさ（512にしなければいけない）
    11 00007C0D 01                              		DB		1				; クラスタの大きさ（1セクタにしなければいけない）
    12 00007C0E 0001                            		DW		1				; FATがどこから始まるか（普通は1セクタ目からにする）
    13 00007C10 02                              		DB		2				; FATの個数（2にしなければいけない）
    14 00007C11 00E0                            		DW		224				; ルートディレクトリ領域の大きさ（普通は224エントリにする）
    15 00007C13 0B40                            		DW		2880			; このドライブの大きさ（2880セクタにしなければいけない）
    16 00007C15 F0                              		DB		0xf0			; メディアのタイプ（0xf0にしなければいけない）
    17 00007C16 0009                            		DW		9				; FAT領域の長さ（9セクタにしなければいけない）
    18 00007C18 0012                            		DW		18				; 1トラックにいくつのセクタがあるか（18にしなければいけない）
    19 00007C1A 0002                            		DW		2				; ヘッドの数（2にしなければいけない）
    20 00007C1C 00000000                        		DD		0				; パーティションを使ってないのでここは必ず0
    21 00007C20 00000B40                        		DD		2880			; このドライブ大きさをもう一度書く
    22 00007C24 00 00 29                        		DB		0,0,0x29		; よくわからないけどこの値にしておくといいらしい
    23 00007C27 FFFFFFFF                        		DD		0xffffffff		; たぶんボリュームシリアル番号
    24 00007C2B 48 45 4C 4C 4F 2D 4F 53 20 20   		DB		"HELLO-OS   "	; ディスクの名前（11バイト）
       00007C35 20 
    25 00007C36 46 41 54 31 32 20 20 20         		DB		"FAT12   "		; フォーマットの名前（8バイト）
    26 00007C3E 00 00 00 00 00 00 00 00 00 00   		RESB	18				; とりあえず18バイトあけておく
       00007C48 00 00 00 00 00 00 00 00 
    27 00007C50                                 ;程序核心
    28 00007C50                                 
    29 00007C50                                 entry:
    30 00007C50 B8 0000                         		MOV		AX,0
    31 00007C53 8E D0                           		MOV		SS,AX
    32 00007C55 BC 7C00                         		MOV 	SP,0x7c00		;
    33 00007C58 8E D8                           		MOV		DS,AX			;DS 置0
    34 00007C5A                                 
    35 00007C5A                                 ;Day3_New 读磁盘
    36 00007C5A B8 0820                         		MOV 	AX,0x0820		;8000以后的地址随便选的，但8000-81ff留给启动区
    37 00007C5D 8E C0                           		MOV 	ES,AX			;ES:BX缓冲地址：把软盘（下面这些扇区）上读出的数据装载到内存中的位置
    38 00007C5F B5 00                           		MOV		CH, 0			;柱面0，磁头0，扇区2  （Q：为啥从第二个扇区开始？？A：第一个扇区好像是系统加载时自动装载的扇区）
    39 00007C61 B6 00                           		MOV 	DH, 0
    40 00007C63 B1 02                           		MOV		CL, 2
    41 00007C65                                 readloop:	
    42 00007C65 BE 0000                         		MOV 	SI,0			;记录失败次数的寄存器
    43 00007C68                                 retry:
    44 00007C68 B4 02                           		MOV  	AH, 0x02		;参数 2：读盘，3：写盘 4：校验，0c：寻道
    45 00007C6A B0 01                           		MOV		AL, 1			;处理1个扇区
    46 00007C6C BB 0000                         		MOV 	BX,0
    47 00007C6F B2 00                           		MOV		DL, 0x00		;DL驱动器号0
    48 00007C71 CD 13                           		INT		0x13			;BIOS_0x13函数
    49 00007C73 73 11                           		JNC		next			;没出错就跳转到next
    50 00007C75                                 		
    51 00007C75 83 C6 01                        		ADD		SI,1
    52 00007C78 83 FE 05                        		CMP		SI,5			;5次试错机会
    53 00007C7B 73 33                           		JAE		error
    54 00007C7D B4 00                           		MOV 	AH,0x00
    55 00007C7F BA 0000                         		MOV     DX,0x00
    56 00007C82 CD 13                           		INT		0x13			;出错的话系统复位，重读一次，AH，DX为相应参数
    57 00007C84 EB E2                           		JMP		retry
    58 00007C86                                 next:
    59 00007C86 8C C0                           		MOV		AX,ES
    60 00007C88 05 0020                         		ADD     AX,0x0020 		;0x20=512/16,内存地址后移512字节（1个扇区512字节，ES(段):BX  ES+20=BX+512 大概就是一个换算问题）
    61 00007C8B 8E C0                           		MOV		ES,AX
    62 00007C8D 80 C1 01                        		ADD 	CL,1			;一个一个扇区的读入
    63 00007C90 80 F9 12                        		CMP		CL,18
    64 00007C93 76 D0                           		JBE		readloop
    65 00007C95                                 		
    66 00007C95 B1 01                           		MOV		CL,1
    67 00007C97 80 C6 01                        		ADD 	DH,1
    68 00007C9A 80 FE 02                        		CMP		DH,2
    69 00007C9D 72 C6                           		JB		readloop
    70 00007C9F B6 00                           		MOV		DH,0
    71 00007CA1 80 C5 01                        		ADD		CH,1
    72 00007CA4 80 FD 0A                        		CMP		CH,CYLS
    73 00007CA7 72 BC                           		JB		readloop
    74 00007CA9                                 		
    75 00007CA9 88 2E 0FF0                      		MOV		[0x0ff0],CH		; IPLがどこまで読んだのかをメモ
    76 00007CAD E9 4550                         		JMP		0xc200
    77 00007CB0                                 
    78 00007CB0                                 error:
    79 00007CB0 BE 7CC8                         		MOV		SI,msg			;msg标号堆应的内存地址赋给si
    80 00007CB3                                 
    81 00007CB3                                 putloop:
    82 00007CB3 8A 04                           		MOV		AL,[SI] 		;[]表示内存地址，si=7c74,就是7c74号内存单元的内容读入al
    83 00007CB5 83 C6 01                        		ADD		SI,1			;SI+1,内存地址加一位
    84 00007CB8 3C 00                           		CMP		AL,0
    85 00007CBA                                 
    86 00007CBA 74 09                           		JE		fin
    87 00007CBC B4 0E                           		MOV 	AH,0x0e			;显示一个文字
    88 00007CBE BB 000F                         		MOV		BX,15			;指定字符颜色
    89 00007CC1 CD 10                           		INT		0x10 			;调用显卡BIOS（中断号由具体的参数来实现功能-AH,AL-显示的字符编码，BH-0,BL-colorcode）
    90 00007CC3 EB EE                           		JMP 	putloop
    91 00007CC5                                 fin:
    92 00007CC5 F4                              		HLT						;CPU暂停工作，停止资源消耗
    93 00007CC6 EB FD                           		JMP fin
    94 00007CC8                                 
    95 00007CC8                                 msg:
    96 00007CC8 0A 0A                           	DB		0x0a,0x0a
    97 00007CCA 6C 6F 61 64 20 65 72 72 6F 72   	DB		"load error"
    98 00007CD4 0A                              	DB 		0x0a
    99 00007CD5 00                              	DB		0
   100 00007CD6                                 ;;	
   101 00007CD6 00 00 00 00 00 00 00 00 00 00   	RESB	0x7dfe-$		; 0x7dfeまでを0x00で埋める命令
       00007CE0 00 00 00 00 00 00 00 00 00 00 
       00007CEA 00 00 00 00 00 00 00 00 00 00 
       00007CF4 00 00 00 00 00 00 00 00 00 00 
       00007CFE 00 00 00 00 00 00 00 00 00 00 
       00007D08 00 00 00 00 00 00 00 00 00 00 
       00007D12 00 00 00 00 00 00 00 00 00 00 
       00007D1C 00 00 00 00 00 00 00 00 00 00 
       00007D26 00 00 00 00 00 00 00 00 00 00 
       00007D30 00 00 00 00 00 00 00 00 00 00 
       00007D3A 00 00 00 00 00 00 00 00 00 00 
       00007D44 00 00 00 00 00 00 00 00 00 00 
       00007D4E 00 00 00 00 00 00 00 00 00 00 
       00007D58 00 00 00 00 00 00 00 00 00 00 
       00007D62 00 00 00 00 00 00 00 00 00 00 
       00007D6C 00 00 00 00 00 00 00 00 00 00 
       00007D76 00 00 00 00 00 00 00 00 00 00 
       00007D80 00 00 00 00 00 00 00 00 00 00 
       00007D8A 00 00 00 00 00 00 00 00 00 00 
       00007D94 00 00 00 00 00 00 00 00 00 00 
       00007D9E 00 00 00 00 00 00 00 00 00 00 
       00007DA8 00 00 00 00 00 00 00 00 00 00 
       00007DB2 00 00 00 00 00 00 00 00 00 00 
       00007DBC 00 00 00 00 00 00 00 00 00 00 
       00007DC6 00 00 00 00 00 00 00 00 00 00 
       00007DD0 00 00 00 00 00 00 00 00 00 00 
       00007DDA 00 00 00 00 00 00 00 00 00 00 
       00007DE4 00 00 00 00 00 00 00 00 00 00 
       00007DEE 00 00 00 00 00 00 00 00 00 00 
       00007DF8 00 00 00 00 00 00 
   102 00007DFE                                 
   103 00007DFE 55 AA                           	DB		0x55, 0xaa
   104 00007E00                                 
   105 00007E00                                 
